target datalayout = "e-m:e-p270:32:32-p271:32:32-p272:64:64-i64:64-i128:128-f80:128-n8:16:32:64-S128"
target triple = "x86_64-pc-linux-gnu"

%struct.AVFilterContext = type { ptr, ptr, ptr, ptr, ptr, i32, ptr, ptr, i32, ptr, ptr, i32, i32, ptr, ptr, ptr, ptr, i32, ptr, i32, i32 }
%struct.VAAPIVPPContext = type { ptr, ptr, ptr, i32, i32, i32, ptr, ptr, %struct._VARectangle, i32, i32, i32, [10 x i32], i32, i32, ptr, ptr }
%struct._VARectangle = type { i16, i16, i16, i16 }
%struct.AVFilterLink = type { ptr, ptr, ptr, ptr, i32, i32, i32, i32, %struct.AVRational, i32, i32, i32, %struct.AVChannelLayout, %struct.AVRational, ptr, i32, %struct.AVFilterFormatsConfig, %struct.AVFilterFormatsConfig }
%struct.AVChannelLayout = type { i32, i32, %union.anon.1, ptr }
%union.anon.1 = type { i64 }
%struct.AVRational = type { i32, i32 }
%struct.AVFilterFormatsConfig = type { ptr, ptr, ptr, ptr, ptr }
%struct.TransposeVAAPIContext = type { %struct.VAAPIVPPContext, i32, i32, i32, i32 }
%struct._VAProcPipelineParameterBuffer = type { i32, ptr, i32, ptr, i32, i32, i32, i32, ptr, i32, ptr, i32, ptr, i32, i32, ptr, i32, ptr, i32, i32, i32, %struct._VAProcColorProperties, %struct._VAProcColorProperties, i32, ptr, [16 x i32] }
%struct._VAProcColorProperties = type { i8, i8, i8, i8, i8, [3 x i8] }
%struct.AVFrame = type { [8 x ptr], [8 x i32], ptr, i32, i32, i32, i32, i32, %struct.AVRational, i64, i64, %struct.AVRational, i32, ptr, i32, i32, [8 x ptr], ptr, i32, ptr, i32, i32, i32, i32, i32, i32, i32, i64, ptr, i32, ptr, ptr, i64, i64, i64, i64, ptr, %struct.AVChannelLayout, i64 }

@.str.3 = private unnamed_addr constant [32 x i8] c"Filter input: %s, %ux%u (%ld).\0A\00", align 1
@.str.4 = private unnamed_addr constant [33 x i8] c"Filter output: %s, %ux%u (%ld).\0A\00", align 1

; Function Attrs: nounwind uwtable
define internal i32 @transpose_vaapi_filter_frame(ptr noundef %0, ptr noundef %1) #2 {
  %3 = alloca i32, align 4
  %4 = alloca ptr, align 8
  %5 = alloca ptr, align 8
  %6 = alloca ptr, align 8
  %7 = alloca ptr, align 8
  %8 = alloca ptr, align 8
  %9 = alloca ptr, align 8
  %10 = alloca ptr, align 8
  %11 = alloca %struct._VAProcPipelineParameterBuffer, align 8
  %12 = alloca i32, align 4
  %13 = alloca i32, align 4
  store ptr %0, ptr %4, align 8, !tbaa !32
  store ptr %1, ptr %5, align 8, !tbaa !47
  call void @llvm.lifetime.start.p0(i64 8, ptr %6) #6
  %14 = load ptr, ptr %4, align 8, !tbaa !32
  %15 = getelementptr inbounds nuw %struct.AVFilterLink, ptr %14, i32 0, i32 2
  %16 = load ptr, ptr %15, align 8, !tbaa !35
  store ptr %16, ptr %6, align 8, !tbaa !4
  call void @llvm.lifetime.start.p0(i64 8, ptr %7) #6
  %17 = load ptr, ptr %6, align 8, !tbaa !4
  %18 = getelementptr inbounds nuw %struct.AVFilterContext, ptr %17, i32 0, i32 7
  %19 = load ptr, ptr %18, align 8, !tbaa !49
  %20 = getelementptr inbounds ptr, ptr %19, i64 0
  %21 = load ptr, ptr %20, align 8, !tbaa !32
  store ptr %21, ptr %7, align 8, !tbaa !32
  call void @llvm.lifetime.start.p0(i64 8, ptr %8) #6
  %22 = load ptr, ptr %6, align 8, !tbaa !4
  %23 = getelementptr inbounds nuw %struct.AVFilterContext, ptr %22, i32 0, i32 9
  %24 = load ptr, ptr %23, align 8, !tbaa !9
  store ptr %24, ptr %8, align 8, !tbaa !22
  call void @llvm.lifetime.start.p0(i64 8, ptr %9) #6
  %25 = load ptr, ptr %6, align 8, !tbaa !4
  %26 = getelementptr inbounds nuw %struct.AVFilterContext, ptr %25, i32 0, i32 9
  %27 = load ptr, ptr %26, align 8, !tbaa !9
  store ptr %27, ptr %9, align 8, !tbaa !43
  call void @llvm.lifetime.start.p0(i64 8, ptr %10) #6
  store ptr null, ptr %10, align 8, !tbaa !47
  call void @llvm.lifetime.start.p0(i64 224, ptr %11) #6
  call void @llvm.lifetime.start.p0(i64 4, ptr %12) #6
  %28 = load ptr, ptr %9, align 8, !tbaa !43
  %29 = getelementptr inbounds nuw %struct.TransposeVAAPIContext, ptr %28, i32 0, i32 1
  %30 = load i32, ptr %29, align 8, !tbaa !45
  %31 = icmp ne i32 %30, 0
  br i1 %31, label %32, label %36

32:                                               ; preds = %2
  %33 = load ptr, ptr %7, align 8, !tbaa !32
  %34 = load ptr, ptr %5, align 8, !tbaa !47
  %35 = call i32 @ff_filter_frame(ptr noundef %33, ptr noundef %34)
  store i32 %35, ptr %3, align 4
  store i32 1, ptr %13, align 4
  br label %118

36:                                               ; preds = %2
  %37 = load ptr, ptr %6, align 8, !tbaa !4
  %38 = load ptr, ptr %5, align 8, !tbaa !47
  %39 = getelementptr inbounds nuw %struct.AVFrame, ptr %38, i32 0, i32 6
  %40 = load i32, ptr %39, align 4, !tbaa !50
  %41 = call ptr @av_get_pix_fmt_name(i32 noundef %40)
  %42 = load ptr, ptr %5, align 8, !tbaa !47
  %43 = getelementptr inbounds nuw %struct.AVFrame, ptr %42, i32 0, i32 3
  %44 = load i32, ptr %43, align 8, !tbaa !56
  %45 = load ptr, ptr %5, align 8, !tbaa !47
  %46 = getelementptr inbounds nuw %struct.AVFrame, ptr %45, i32 0, i32 4
  %47 = load i32, ptr %46, align 4, !tbaa !57
  %48 = load ptr, ptr %5, align 8, !tbaa !47
  %49 = getelementptr inbounds nuw %struct.AVFrame, ptr %48, i32 0, i32 9
  %50 = load i64, ptr %49, align 8, !tbaa !58
  call void (ptr, i32, ptr, ...) @av_log(ptr noundef %37, i32 noundef 48, ptr noundef @.str.3, ptr noundef %41, i32 noundef %44, i32 noundef %47, i64 noundef %50)
  %51 = load ptr, ptr %8, align 8, !tbaa !22
  %52 = getelementptr inbounds nuw %struct.VAAPIVPPContext, ptr %51, i32 0, i32 5
  %53 = load i32, ptr %52, align 8, !tbaa !59
  %54 = icmp eq i32 %53, -1
  br i1 %54, label %55, label %56

55:                                               ; preds = %36
  store i32 -22, ptr %3, align 4
  store i32 1, ptr %13, align 4
  br label %118

56:                                               ; preds = %36
  %57 = load ptr, ptr %7, align 8, !tbaa !32
  %58 = load ptr, ptr %8, align 8, !tbaa !22
  %59 = getelementptr inbounds nuw %struct.VAAPIVPPContext, ptr %58, i32 0, i32 10
  %60 = load i32, ptr %59, align 4, !tbaa !60
  %61 = load ptr, ptr %8, align 8, !tbaa !22
  %62 = getelementptr inbounds nuw %struct.VAAPIVPPContext, ptr %61, i32 0, i32 11
  %63 = load i32, ptr %62, align 8, !tbaa !61
  %64 = call ptr @ff_get_video_buffer(ptr noundef %57, i32 noundef %60, i32 noundef %63)
  store ptr %64, ptr %10, align 8, !tbaa !47
  %65 = load ptr, ptr %10, align 8, !tbaa !47
  %66 = icmp ne ptr %65, null
  br i1 %66, label %68, label %67

67:                                               ; preds = %56
  store i32 -12, ptr %12, align 4, !tbaa !34
  br label %116

68:                                               ; preds = %56
  %69 = load ptr, ptr %10, align 8, !tbaa !47
  %70 = load ptr, ptr %5, align 8, !tbaa !47
  %71 = call i32 @av_frame_copy_props(ptr noundef %69, ptr noundef %70)
  store i32 %71, ptr %12, align 4, !tbaa !34
  %72 = load i32, ptr %12, align 4, !tbaa !34
  %73 = icmp slt i32 %72, 0
  br i1 %73, label %74, label %75

74:                                               ; preds = %68
  br label %116

75:                                               ; preds = %68
  %76 = load ptr, ptr %6, align 8, !tbaa !4
  %77 = load ptr, ptr %5, align 8, !tbaa !47
  %78 = load ptr, ptr %10, align 8, !tbaa !47
  %79 = call i32 @ff_vaapi_vpp_init_params(ptr noundef %76, ptr noundef %11, ptr noundef %77, ptr noundef %78)
  store i32 %79, ptr %12, align 4, !tbaa !34
  %80 = load i32, ptr %12, align 4, !tbaa !34
  %81 = icmp slt i32 %80, 0
  br i1 %81, label %82, label %83

82:                                               ; preds = %75
  br label %116

83:                                               ; preds = %75
  %84 = load ptr, ptr %9, align 8, !tbaa !43
  %85 = getelementptr inbounds nuw %struct.TransposeVAAPIContext, ptr %84, i32 0, i32 3
  %86 = load i32, ptr %85, align 8, !tbaa !62
  %87 = getelementptr inbounds nuw %struct._VAProcPipelineParameterBuffer, ptr %11, i32 0, i32 14
  store i32 %86, ptr %87, align 4, !tbaa !63
  %88 = load ptr, ptr %9, align 8, !tbaa !43
  %89 = getelementptr inbounds nuw %struct.TransposeVAAPIContext, ptr %88, i32 0, i32 4
  %90 = load i32, ptr %89, align 4, !tbaa !70
  %91 = getelementptr inbounds nuw %struct._VAProcPipelineParameterBuffer, ptr %11, i32 0, i32 16
  store i32 %90, ptr %91, align 8, !tbaa !71
  %92 = load ptr, ptr %6, align 8, !tbaa !4
  %93 = load ptr, ptr %10, align 8, !tbaa !47
  %94 = call i32 @ff_vaapi_vpp_render_picture(ptr noundef %92, ptr noundef %11, ptr noundef %93)
  store i32 %94, ptr %12, align 4, !tbaa !34
  %95 = load i32, ptr %12, align 4, !tbaa !34
  %96 = icmp slt i32 %95, 0
  br i1 %96, label %97, label %98

97:                                               ; preds = %83
  br label %116

98:                                               ; preds = %83
  call void @av_frame_free(ptr noundef %5)
  %99 = load ptr, ptr %6, align 8, !tbaa !4
  %100 = load ptr, ptr %10, align 8, !tbaa !47
  %101 = getelementptr inbounds nuw %struct.AVFrame, ptr %100, i32 0, i32 6
  %102 = load i32, ptr %101, align 4, !tbaa !50
  %103 = call ptr @av_get_pix_fmt_name(i32 noundef %102)
  %104 = load ptr, ptr %10, align 8, !tbaa !47
  %105 = getelementptr inbounds nuw %struct.AVFrame, ptr %104, i32 0, i32 3
  %106 = load i32, ptr %105, align 8, !tbaa !56
  %107 = load ptr, ptr %10, align 8, !tbaa !47
  %108 = getelementptr inbounds nuw %struct.AVFrame, ptr %107, i32 0, i32 4
  %109 = load i32, ptr %108, align 4, !tbaa !57
  %110 = load ptr, ptr %10, align 8, !tbaa !47
  %111 = getelementptr inbounds nuw %struct.AVFrame, ptr %110, i32 0, i32 9
  %112 = load i64, ptr %111, align 8, !tbaa !58
  call void (ptr, i32, ptr, ...) @av_log(ptr noundef %99, i32 noundef 48, ptr noundef @.str.4, ptr noundef %103, i32 noundef %106, i32 noundef %109, i64 noundef %112)
  %113 = load ptr, ptr %7, align 8, !tbaa !32
  %114 = load ptr, ptr %10, align 8, !tbaa !47
  %115 = call i32 @ff_filter_frame(ptr noundef %113, ptr noundef %114)
  store i32 %115, ptr %3, align 4
  store i32 1, ptr %13, align 4
  br label %118

116:                                              ; preds = %97, %82, %74, %67
  call void @av_frame_free(ptr noundef %5)
  call void @av_frame_free(ptr noundef %10)
  %117 = load i32, ptr %12, align 4, !tbaa !34
  store i32 %117, ptr %3, align 4
  store i32 1, ptr %13, align 4
  br label %118

118:                                              ; preds = %116, %98, %55, %32
  call void @llvm.lifetime.end.p0(i64 4, ptr %12) #6
  call void @llvm.lifetime.end.p0(i64 224, ptr %11) #6
  call void @llvm.lifetime.end.p0(i64 8, ptr %10) #6
  call void @llvm.lifetime.end.p0(i64 8, ptr %9) #6
  call void @llvm.lifetime.end.p0(i64 8, ptr %8) #6
  call void @llvm.lifetime.end.p0(i64 8, ptr %7) #6
  call void @llvm.lifetime.end.p0(i64 8, ptr %6) #6
  %119 = load i32, ptr %3, align 4
  ret i32 %119
}