; Function Attrs: nounwind uwtable
define internal i32 @transpose_vaapi_filter_frame(ptr noundef readonly captures(none) %0, ptr noundef %1) #2 {
  %3 = alloca ptr, align 8
  %4 = alloca ptr, align 8
  %5 = alloca %struct._VAProcPipelineParameterBuffer, align 8
  store ptr %1, ptr %3, align 8, !tbaa !39
  %6 = getelementptr inbounds nuw i8, ptr %0, i64 16
  %7 = load ptr, ptr %6, align 8, !tbaa !28
  %8 = getelementptr inbounds nuw i8, ptr %7, i64 56
  %9 = load ptr, ptr %8, align 8, !tbaa !41
  %10 = load ptr, ptr %9, align 8, !tbaa !42
  %11 = getelementptr inbounds nuw i8, ptr %7, i64 72
  %12 = load ptr, ptr %11, align 8, !tbaa !4
  call void @llvm.lifetime.start.p0(i64 8, ptr nonnull %4) #5
  call void @llvm.lifetime.start.p0(i64 224, ptr nonnull %5) #5
  %13 = getelementptr inbounds nuw i8, ptr %12, i64 144
  %14 = load i32, ptr %13, align 8, !tbaa !37
  %.not = icmp eq i32 %14, 0
  br i1 %.not, label %17, label %15

15:                                               ; preds = %2
  %16 = tail call i32 @ff_filter_frame(ptr noundef %10, ptr noundef %1) #5
  br label %63

17:                                               ; preds = %2
  %18 = getelementptr inbounds nuw i8, ptr %1, i64 116
  %19 = load i32, ptr %18, align 4, !tbaa !44
  %20 = tail call ptr @av_get_pix_fmt_name(i32 noundef %19) #5
  %21 = getelementptr inbounds nuw i8, ptr %1, i64 104
  %22 = load i32, ptr %21, align 8, !tbaa !50
  %23 = getelementptr inbounds nuw i8, ptr %1, i64 108
  %24 = load i32, ptr %23, align 4, !tbaa !51
  %25 = getelementptr inbounds nuw i8, ptr %1, i64 136
  %26 = load i64, ptr %25, align 8, !tbaa !52
  tail call void (ptr, i32, ptr, ...) @av_log(ptr noundef nonnull %7, i32 noundef 48, ptr noundef nonnull @.str.3, ptr noundef %20, i32 noundef %22, i32 noundef %24, i64 noundef %26) #5
  %27 = getelementptr inbounds nuw i8, ptr %12, i64 32
  %28 = load i32, ptr %27, align 8, !tbaa !53
  %29 = icmp eq i32 %28, -1
  br i1 %29, label %63, label %30

30:                                               ; preds = %17
  %31 = getelementptr inbounds nuw i8, ptr %12, i64 68
  %32 = load i32, ptr %31, align 4, !tbaa !54
  %33 = getelementptr inbounds nuw i8, ptr %12, i64 72
  %34 = load i32, ptr %33, align 8, !tbaa !55
  %35 = tail call ptr @ff_get_video_buffer(ptr noundef %10, i32 noundef %32, i32 noundef %34) #5
  store ptr %35, ptr %4, align 8, !tbaa !39
  %.not26 = icmp eq ptr %35, null
  br i1 %.not26, label %62, label %36

36:                                               ; preds = %30
  %37 = tail call i32 @av_frame_copy_props(ptr noundef nonnull %35, ptr noundef nonnull %1) #5
  %38 = icmp slt i32 %37, 0
  br i1 %38, label %62, label %39

39:                                               ; preds = %36
  %40 = call i32 @ff_vaapi_vpp_init_params(ptr noundef nonnull %7, ptr noundef nonnull %5, ptr noundef nonnull %1, ptr noundef nonnull %35) #5
  %41 = icmp slt i32 %40, 0
  br i1 %41, label %62, label %42

42:                                               ; preds = %39
  %43 = getelementptr inbounds nuw i8, ptr %12, i64 152
  %44 = load i32, ptr %43, align 8, !tbaa !56
  %45 = getelementptr inbounds nuw i8, ptr %5, i64 92
  store i32 %44, ptr %45, align 4, !tbaa !57
  %46 = getelementptr inbounds nuw i8, ptr %12, i64 156
  %47 = load i32, ptr %46, align 4, !tbaa !64
  %48 = getelementptr inbounds nuw i8, ptr %5, i64 104
  store i32 %47, ptr %48, align 8, !tbaa !65
  %49 = call i32 @ff_vaapi_vpp_render_picture(ptr noundef nonnull %7, ptr noundef nonnull %5, ptr noundef nonnull %35) #5
  %50 = icmp slt i32 %49, 0
  br i1 %50, label %62, label %51

51:                                               ; preds = %42
  call void @av_frame_free(ptr noundef nonnull %3) #5
  %52 = getelementptr inbounds nuw i8, ptr %35, i64 116
  %53 = load i32, ptr %52, align 4, !tbaa !44
  %54 = call ptr @av_get_pix_fmt_name(i32 noundef %53) #5
  %55 = getelementptr inbounds nuw i8, ptr %35, i64 104
  %56 = load i32, ptr %55, align 8, !tbaa !50
  %57 = getelementptr inbounds nuw i8, ptr %35, i64 108
  %58 = load i32, ptr %57, align 4, !tbaa !51
  %59 = getelementptr inbounds nuw i8, ptr %35, i64 136
  %60 = load i64, ptr %59, align 8, !tbaa !52
  call void (ptr, i32, ptr, ...) @av_log(ptr noundef nonnull %7, i32 noundef 48, ptr noundef nonnull @.str.4, ptr noundef %54, i32 noundef %56, i32 noundef %58, i64 noundef %60) #5
  %61 = call i32 @ff_filter_frame(ptr noundef %10, ptr noundef nonnull %35) #5
  br label %63

62:                                               ; preds = %30, %42, %39, %36
  %.0 = phi i32 [ %37, %36 ], [ %40, %39 ], [ %49, %42 ], [ -12, %30 ]
  call void @av_frame_free(ptr noundef nonnull %3) #5
  call void @av_frame_free(ptr noundef nonnull %4) #5
  br label %63

63:                                               ; preds = %17, %62, %51, %15
  %.021 = phi i32 [ %16, %15 ], [ %.0, %62 ], [ %61, %51 ], [ -22, %17 ]
  call void @llvm.lifetime.end.p0(i64 224, ptr nonnull %5) #5
  call void @llvm.lifetime.end.p0(i64 8, ptr nonnull %4) #5
  ret i32 %.021
}